; Function Attrs: mustprogress uwtable
define void @_ZN8proxygen12HPACKEncoder13encodeAsIndexEj(ptr noundef nonnull align 8 dereferenceable(236) %this, i32 noundef %index) local_unnamed_addr #3 align 2 personality ptr @__gxx_personality_v0 {
entry:
  %ref.tmp5 = alloca %"class.google::LogMessage", align 8
  %0 = load ptr, ptr @_ZZN8proxygen12HPACKEncoder13encodeAsIndexEjE8vlocal__, align 8
  %cmp = icmp eq ptr %0, null
  br i1 %cmp, label %cond.true, label %cond.end

cond.true:                                        ; preds = %entry
  %call = tail call noundef zeroext i1 @_ZN6google11InitVLOG3__EPNS_8SiteFlagEPiPKci(ptr noundef nonnull @_ZZN8proxygen12HPACKEncoder13encodeAsIndexEjE8vlocal__, ptr noundef nonnull @_ZN3fLI7FLAGS_vE, ptr noundef nonnull @.str.1, i32 noundef 10)
  br i1 %call, label %cond.false4, label %cleanup.done

cond.end:                                         ; preds = %entry
  %1 = load i32, ptr %0, align 4
  %cmp2 = icmp sgt i32 %1, 9
  br i1 %cmp2, label %cond.false4, label %cleanup.done

cond.false4:                                      ; preds = %cond.true, %cond.end
  call void @_ZN6google10LogMessageC1EPKci(ptr noundef nonnull align 8 dereferenceable(96) %ref.tmp5, ptr noundef nonnull @.str.1, i32 noundef 143)
  %call6 = invoke noundef nonnull align 8 dereferenceable(8) ptr @_ZN6google10LogMessage6streamEv(ptr noundef nonnull align 8 dereferenceable(96) %ref.tmp5)
          to label %invoke.cont unwind label %lpad

invoke.cont:                                      ; preds = %cond.false4
  %call8 = invoke noundef nonnull align 8 dereferenceable(8) ptr @_ZStlsISt11char_traitsIcEERSt13basic_ostreamIcT_ES5_PKc(ptr noundef nonnull align 8 dereferenceable(8) %call6, ptr noundef nonnull @.str.6)
          to label %invoke.cont7 unwind label %lpad

invoke.cont7:                                     ; preds = %invoke.cont
  %call10 = invoke noundef nonnull align 8 dereferenceable(8) ptr @_ZNSolsEj(ptr noundef nonnull align 8 dereferenceable(8) %call8, i32 noundef %index)
          to label %cleanup.action unwind label %lpad

cleanup.action:                                   ; preds = %invoke.cont7
  call void @_ZN6google10LogMessageD1Ev(ptr noundef nonnull align 8 dereferenceable(96) %ref.tmp5) #22
  br label %cleanup.done

cleanup.done:                                     ; preds = %cond.true, %cond.end, %cleanup.action
  %streamBuffer_ = getelementptr inbounds i8, ptr %this, i64 8
  %conv = zext i32 %index to i64
  %call16 = call noundef i32 @_ZN8proxygen17HPACKEncodeBuffer13encodeIntegerEmRKNS_5HPACK11InstructionE(ptr noundef nonnull align 8 dereferenceable(132) %streamBuffer_, i64 noundef %conv, ptr noundef nonnull align 1 dereferenceable(2) @_ZN8proxygen5HPACKL9INDEX_REFE)
  ret void

lpad:                                             ; preds = %invoke.cont7, %invoke.cont, %cond.false4
  %2 = landingpad { ptr, i32 }
          cleanup
  call void @_ZN6google10LogMessageD1Ev(ptr noundef nonnull align 8 dereferenceable(96) %ref.tmp5) #22
  resume { ptr, i32 } %2
}